target datalayout = "e-m:e-p270:32:32-p271:32:32-p272:64:64-i64:64-i128:128-f80:128-n8:16:32:64-S128"
target triple = "x86_64-unknown-linux-gnu"

%class.OutputStream = type { ptr, i64, i64, i32, i32 }
%"class.llvh::itanium_demangle::Node" = type <{ ptr, i8, i8, i8, i8, [4 x i8] }>

; Function Attrs: mustprogress nounwind uwtable
define linkonce_odr hidden void @_ZN12OutputStream4growEm(ptr noundef nonnull align 8 dereferenceable(32) %this, i64 noundef %N) #0 comdat align 2 {
entry:
  %this.addr = alloca ptr, align 8
  %N.addr = alloca i64, align 8
  store ptr %this, ptr %this.addr, align 8
  store i64 %N, ptr %N.addr, align 8
  %this1 = load ptr, ptr %this.addr, align 8
  %0 = load i64, ptr %N.addr, align 8
  %CurrentPosition = getelementptr inbounds %class.OutputStream, ptr %this1, i32 0, i32 1
  %1 = load i64, ptr %CurrentPosition, align 8
  %add = add i64 %0, %1
  %BufferCapacity = getelementptr inbounds %class.OutputStream, ptr %this1, i32 0, i32 2
  %2 = load i64, ptr %BufferCapacity, align 8
  %cmp = icmp uge i64 %add, %2
  br i1 %cmp, label %if.then, label %if.end17

if.then:                                          ; preds = %entry
  %BufferCapacity2 = getelementptr inbounds %class.OutputStream, ptr %this1, i32 0, i32 2
  %3 = load i64, ptr %BufferCapacity2, align 8
  %mul = mul i64 %3, 2
  store i64 %mul, ptr %BufferCapacity2, align 8
  %BufferCapacity3 = getelementptr inbounds %class.OutputStream, ptr %this1, i32 0, i32 2
  %4 = load i64, ptr %BufferCapacity3, align 8
  %5 = load i64, ptr %N.addr, align 8
  %CurrentPosition4 = getelementptr inbounds %class.OutputStream, ptr %this1, i32 0, i32 1
  %6 = load i64, ptr %CurrentPosition4, align 8
  %add5 = add i64 %5, %6
  %cmp6 = icmp ult i64 %4, %add5
  br i1 %cmp6, label %if.then7, label %if.end

if.then7:                                         ; preds = %if.then
  %7 = load i64, ptr %N.addr, align 8
  %CurrentPosition8 = getelementptr inbounds %class.OutputStream, ptr %this1, i32 0, i32 1
  %8 = load i64, ptr %CurrentPosition8, align 8
  %add9 = add i64 %7, %8
  %BufferCapacity10 = getelementptr inbounds %class.OutputStream, ptr %this1, i32 0, i32 2
  store i64 %add9, ptr %BufferCapacity10, align 8
  br label %if.end

if.end:                                           ; preds = %if.then7, %if.then
  %Buffer = getelementptr inbounds %class.OutputStream, ptr %this1, i32 0, i32 0
  %9 = load ptr, ptr %Buffer, align 8
  %BufferCapacity11 = getelementptr inbounds %class.OutputStream, ptr %this1, i32 0, i32 2
  %10 = load i64, ptr %BufferCapacity11, align 8
  %call = call ptr @realloc(ptr noundef %9, i64 noundef %10) #17
  %Buffer12 = getelementptr inbounds %class.OutputStream, ptr %this1, i32 0, i32 0
  store ptr %call, ptr %Buffer12, align 8
  %Buffer13 = getelementptr inbounds %class.OutputStream, ptr %this1, i32 0, i32 0
  %11 = load ptr, ptr %Buffer13, align 8
  %cmp14 = icmp eq ptr %11, null
  br i1 %cmp14, label %if.then15, label %if.end16

if.then15:                                        ; preds = %if.end
  call void @_ZSt9terminatev() #18
  unreachable

if.end16:                                         ; preds = %if.end
  br label %if.end17

if.end17:                                         ; preds = %if.end16, %entry
  ret void
}

; Function Attrs: mustprogress nounwind uwtable
define linkonce_odr hidden void @_ZN12OutputStream5resetEPcm(ptr noundef nonnull align 8 dereferenceable(32) %this, ptr noundef %Buffer_, i64 noundef %BufferCapacity_) #0 comdat align 2 {
entry:
  %this.addr = alloca ptr, align 8
  %Buffer_.addr = alloca ptr, align 8
  %BufferCapacity_.addr = alloca i64, align 8
  store ptr %this, ptr %this.addr, align 8
  store ptr %Buffer_, ptr %Buffer_.addr, align 8
  store i64 %BufferCapacity_, ptr %BufferCapacity_.addr, align 8
  %this1 = load ptr, ptr %this.addr, align 8
  %CurrentPosition = getelementptr inbounds %class.OutputStream, ptr %this1, i32 0, i32 1
  store i64 0, ptr %CurrentPosition, align 8
  %0 = load ptr, ptr %Buffer_.addr, align 8
  %Buffer = getelementptr inbounds %class.OutputStream, ptr %this1, i32 0, i32 0
  store ptr %0, ptr %Buffer, align 8
  %1 = load i64, ptr %BufferCapacity_.addr, align 8
  %BufferCapacity = getelementptr inbounds %class.OutputStream, ptr %this1, i32 0, i32 2
  store i64 %1, ptr %BufferCapacity, align 8
  ret void
}

; Function Attrs: mustprogress nounwind uwtable
define linkonce_odr noundef i32 @_ZNSt14numeric_limitsIjE3maxEv() #0 comdat align 2 {
entry:
  ret i32 -1
}

; Function Attrs: mustprogress nounwind uwtable
define linkonce_odr hidden noundef ptr @_ZN12OutputStream9getBufferEv(ptr noundef nonnull align 8 dereferenceable(32) %this) #0 comdat align 2 {
entry:
  %this.addr = alloca ptr, align 8
  store ptr %this, ptr %this.addr, align 8
  %this1 = load ptr, ptr %this.addr, align 8
  %Buffer = getelementptr inbounds %class.OutputStream, ptr %this1, i32 0, i32 0
  %0 = load ptr, ptr %Buffer, align 8
  ret ptr %0
}

; Function Attrs: mustprogress nounwind uwtable
define linkonce_odr hidden noundef i64 @_ZNK12OutputStream18getCurrentPositionEv(ptr noundef nonnull align 8 dereferenceable(32) %this) #0 comdat align 2 {
entry:
  %this.addr = alloca ptr, align 8
  store ptr %this, ptr %this.addr, align 8
  %this1 = load ptr, ptr %this.addr, align 8
  %CurrentPosition = getelementptr inbounds %class.OutputStream, ptr %this1, i32 0, i32 1
  %0 = load i64, ptr %CurrentPosition, align 8
  ret i64 %0
}

; Function Attrs: mustprogress nounwind uwtable
define linkonce_odr hidden noundef nonnull align 8 dereferenceable(32) ptr @_ZN12OutputStreampLEc(ptr noundef nonnull align 8 dereferenceable(32) %this, i8 noundef signext %C) #0 comdat align 2 {
entry:
  %this.addr = alloca ptr, align 8
  %C.addr = alloca i8, align 1
  store ptr %this, ptr %this.addr, align 8
  store i8 %C, ptr %C.addr, align 1
  %this1 = load ptr, ptr %this.addr, align 8
  call void @_ZN12OutputStream4growEm(ptr noundef nonnull align 8 dereferenceable(32) %this1, i64 noundef 1)
  %0 = load i8, ptr %C.addr, align 1
  %Buffer = getelementptr inbounds %class.OutputStream, ptr %this1, i32 0, i32 0
  %1 = load ptr, ptr %Buffer, align 8
  %CurrentPosition = getelementptr inbounds %class.OutputStream, ptr %this1, i32 0, i32 1
  %2 = load i64, ptr %CurrentPosition, align 8
  %inc = add i64 %2, 1
  store i64 %inc, ptr %CurrentPosition, align 8
  %arrayidx = getelementptr inbounds i8, ptr %1, i64 %2
  store i8 %0, ptr %arrayidx, align 1
  ret ptr %this1
}

; Function Attrs: mustprogress nounwind uwtable
define linkonce_odr hidden void @_ZNK4llvh16itanium_demangle4Node5printER12OutputStream(ptr noundef nonnull align 8 dereferenceable(12) %this, ptr noundef nonnull align 8 dereferenceable(32) %S) #0 comdat align 2 {
entry:
  %this.addr = alloca ptr, align 8
  %S.addr = alloca ptr, align 8
  store ptr %this, ptr %this.addr, align 8
  store ptr %S, ptr %S.addr, align 8
  %this1 = load ptr, ptr %this.addr, align 8
  %0 = load ptr, ptr %S.addr, align 8
  %vtable = load ptr, ptr %this1, align 8
  %vfn = getelementptr inbounds ptr, ptr %vtable, i64 4
  %1 = load ptr, ptr %vfn, align 8
  call void %1(ptr noundef nonnull align 8 dereferenceable(12) %this1, ptr noundef nonnull align 8 dereferenceable(32) %0)
  %RHSComponentCache = getelementptr inbounds %"class.llvh::itanium_demangle::Node", ptr %this1, i32 0, i32 2
  %2 = load i8, ptr %RHSComponentCache, align 1
  %cmp = icmp ne i8 %2, 1
  br i1 %cmp, label %if.then, label %if.end

if.then:                                          ; preds = %entry
  %3 = load ptr, ptr %S.addr, align 8
  %vtable2 = load ptr, ptr %this1, align 8
  %vfn3 = getelementptr inbounds ptr, ptr %vtable2, i64 5
  %4 = load ptr, ptr %vfn3, align 8
  call void %4(ptr noundef nonnull align 8 dereferenceable(12) %this1, ptr noundef nonnull align 8 dereferenceable(32) %3)
  br label %if.end

if.end:                                           ; preds = %if.then, %entry
  ret void
}

; Function Attrs: mustprogress nounwind uwtable
define linkonce_odr hidden noundef zeroext i1 @_Z22initializeOutputStreamPcPmR12OutputStreamm(ptr noundef %Buf, ptr noundef %N, ptr noundef nonnull align 8 dereferenceable(32) %S, i64 noundef %InitSize) #0 comdat {
entry:
  %retval = alloca i1, align 1
  %Buf.addr = alloca ptr, align 8
  %N.addr = alloca ptr, align 8
  %S.addr = alloca ptr, align 8
  %InitSize.addr = alloca i64, align 8
  %BufferSize = alloca i64, align 8
  store ptr %Buf, ptr %Buf.addr, align 8
  store ptr %N, ptr %N.addr, align 8
  store ptr %S, ptr %S.addr, align 8
  store i64 %InitSize, ptr %InitSize.addr, align 8
  %0 = load ptr, ptr %Buf.addr, align 8
  %cmp = icmp eq ptr %0, null
  br i1 %cmp, label %if.then, label %if.else

if.then:                                          ; preds = %entry
  %1 = load i64, ptr %InitSize.addr, align 8
  %call = call noalias ptr @malloc(i64 noundef %1) #14
  store ptr %call, ptr %Buf.addr, align 8
  %2 = load ptr, ptr %Buf.addr, align 8
  %cmp1 = icmp eq ptr %2, null
  br i1 %cmp1, label %if.then2, label %if.end

if.then2:                                         ; preds = %if.then
  store i1 true, ptr %retval, align 1
  br label %return

if.end:                                           ; preds = %if.then
  %3 = load i64, ptr %InitSize.addr, align 8
  store i64 %3, ptr %BufferSize, align 8
  br label %if.end3

if.else:                                          ; preds = %entry
  %4 = load ptr, ptr %N.addr, align 8
  %5 = load i64, ptr %4, align 8
  store i64 %5, ptr %BufferSize, align 8
  br label %if.end3

if.end3:                                          ; preds = %if.else, %if.end
  %6 = load ptr, ptr %S.addr, align 8
  %7 = load ptr, ptr %Buf.addr, align 8
  %8 = load i64, ptr %BufferSize, align 8
  call void @_ZN12OutputStream5resetEPcm(ptr noundef nonnull align 8 dereferenceable(32) %6, ptr noundef %7, i64 noundef %8)
  store i1 false, ptr %retval, align 1
  br label %return

return:                                           ; preds = %if.end3, %if.then2
  %9 = load i1, ptr %retval, align 1
  ret i1 %9
}

; Function Attrs: mustprogress nounwind uwtable
define linkonce_odr hidden void @_ZN12OutputStreamC2Ev(ptr noundef nonnull align 8 dereferenceable(32) %this) unnamed_addr #0 comdat align 2 {
entry:
  %this.addr = alloca ptr, align 8
  store ptr %this, ptr %this.addr, align 8
  %this1 = load ptr, ptr %this.addr, align 8
  %CurrentPackIndex = getelementptr inbounds %class.OutputStream, ptr %this1, i32 0, i32 3
  %call = call noundef i32 @_ZNSt14numeric_limitsIjE3maxEv() #13
  store i32 %call, ptr %CurrentPackIndex, align 8
  %CurrentPackMax = getelementptr inbounds %class.OutputStream, ptr %this1, i32 0, i32 4
  %call2 = call noundef i32 @_ZNSt14numeric_limitsIjE3maxEv() #13
  store i32 %call2, ptr %CurrentPackMax, align 4
  ret void
}

; Function Attrs: mustprogress nounwind uwtable
define internal noundef ptr @_ZL9printNodePKN4llvh16itanium_demangle4NodeEPcPm(ptr noundef %RootNode, ptr noundef %Buf, ptr noundef %N) #0 {
entry:
  %retval = alloca ptr, align 8
  %RootNode.addr = alloca ptr, align 8
  %Buf.addr = alloca ptr, align 8
  %N.addr = alloca ptr, align 8
  %S = alloca %class.OutputStream, align 8
  store ptr %RootNode, ptr %RootNode.addr, align 8
  store ptr %Buf, ptr %Buf.addr, align 8
  store ptr %N, ptr %N.addr, align 8
  call void @_ZN12OutputStreamC2Ev(ptr noundef nonnull align 8 dereferenceable(32) %S) #13
  %0 = load ptr, ptr %Buf.addr, align 8
  %1 = load ptr, ptr %N.addr, align 8
  %call = call noundef zeroext i1 @_Z22initializeOutputStreamPcPmR12OutputStreamm(ptr noundef %0, ptr noundef %1, ptr noundef nonnull align 8 dereferenceable(32) %S, i64 noundef 128)
  br i1 %call, label %if.then, label %if.end

if.then:                                          ; preds = %entry
  store ptr null, ptr %retval, align 8
  br label %return

if.end:                                           ; preds = %entry
  %2 = load ptr, ptr %RootNode.addr, align 8
  call void @_ZNK4llvh16itanium_demangle4Node5printER12OutputStream(ptr noundef nonnull align 8 dereferenceable(12) %2, ptr noundef nonnull align 8 dereferenceable(32) %S)
  %call1 = call noundef nonnull align 8 dereferenceable(32) ptr @_ZN12OutputStreampLEc(ptr noundef nonnull align 8 dereferenceable(32) %S, i8 noundef signext 0)
  %3 = load ptr, ptr %N.addr, align 8
  %cmp = icmp ne ptr %3, null
  br i1 %cmp, label %if.then2, label %if.end4

if.then2:                                         ; preds = %if.end
  %call3 = call noundef i64 @_ZNK12OutputStream18getCurrentPositionEv(ptr noundef nonnull align 8 dereferenceable(32) %S)
  %4 = load ptr, ptr %N.addr, align 8
  store i64 %call3, ptr %4, align 8
  br label %if.end4

if.end4:                                          ; preds = %if.then2, %if.end
  %call5 = call noundef ptr @_ZN12OutputStream9getBufferEv(ptr noundef nonnull align 8 dereferenceable(32) %S)
  store ptr %call5, ptr %retval, align 8
  br label %return

return:                                           ; preds = %if.end4, %if.then
  %5 = load ptr, ptr %retval, align 8
  ret ptr %5
}