; Function Attrs: mustprogress nounwind uwtable
define internal fastcc noundef ptr @_ZL9printNodePKN4llvh16itanium_demangle4NodeEPcPm(ptr noundef %RootNode, ptr noundef %Buf, ptr noundef %N) unnamed_addr #1 {
entry:
  %S = alloca %class.OutputStream, align 8
  %CurrentPackIndex.i = getelementptr inbounds i8, ptr %S, i64 24
  store i32 -1, ptr %CurrentPackIndex.i, align 8
  %CurrentPackMax.i = getelementptr inbounds i8, ptr %S, i64 28
  store i32 -1, ptr %CurrentPackMax.i, align 4
  %cmp.i = icmp eq ptr %Buf, null
  br i1 %cmp.i, label %if.then.i, label %if.else.i

if.then.i:                                        ; preds = %entry
  %call.i = tail call noalias dereferenceable_or_null(128) ptr @malloc(i64 noundef 128) #19
  %cmp1.i = icmp eq ptr %call.i, null
  br i1 %cmp1.i, label %return, label %if.end

if.else.i:                                        ; preds = %entry
  %0 = load i64, ptr %N, align 8
  br label %if.end

if.end:                                           ; preds = %if.else.i, %if.then.i
  %Buf.addr.0.i = phi ptr [ %Buf, %if.else.i ], [ %call.i, %if.then.i ]
  %BufferSize.0.i = phi i64 [ %0, %if.else.i ], [ 128, %if.then.i ]
  %CurrentPosition.i.i = getelementptr inbounds i8, ptr %S, i64 8
  store i64 0, ptr %CurrentPosition.i.i, align 8
  store ptr %Buf.addr.0.i, ptr %S, align 8
  %BufferCapacity.i.i = getelementptr inbounds i8, ptr %S, i64 16
  store i64 %BufferSize.0.i, ptr %BufferCapacity.i.i, align 8
  %vtable.i = load ptr, ptr %RootNode, align 8
  %vfn.i = getelementptr inbounds i8, ptr %vtable.i, i64 32
  %1 = load ptr, ptr %vfn.i, align 8
  call void %1(ptr noundef nonnull align 8 dereferenceable(12) %RootNode, ptr noundef nonnull align 8 dereferenceable(32) %S) #20
  %RHSComponentCache.i = getelementptr inbounds i8, ptr %RootNode, i64 9
  %2 = load i8, ptr %RHSComponentCache.i, align 1
  %cmp.not.i = icmp eq i8 %2, 1
  br i1 %cmp.not.i, label %_ZNK4llvh16itanium_demangle4Node5printER12OutputStream.exit, label %if.then.i3

if.then.i3:                                       ; preds = %if.end
  %vtable2.i = load ptr, ptr %RootNode, align 8
  %vfn3.i = getelementptr inbounds i8, ptr %vtable2.i, i64 40
  %3 = load ptr, ptr %vfn3.i, align 8
  call void %3(ptr noundef nonnull align 8 dereferenceable(12) %RootNode, ptr noundef nonnull align 8 dereferenceable(32) %S) #20
  br label %_ZNK4llvh16itanium_demangle4Node5printER12OutputStream.exit

_ZNK4llvh16itanium_demangle4Node5printER12OutputStream.exit: ; preds = %if.end, %if.then.i3
  %4 = load i64, ptr %CurrentPosition.i.i, align 8
  %add.i.i = add i64 %4, 1
  %5 = load i64, ptr %BufferCapacity.i.i, align 8
  %cmp.not.i.i = icmp ult i64 %add.i.i, %5
  %.pre.i = load ptr, ptr %S, align 8
  br i1 %cmp.not.i.i, label %_ZN12OutputStreampLEc.exit, label %if.then.i.i

if.then.i.i:                                      ; preds = %_ZNK4llvh16itanium_demangle4Node5printER12OutputStream.exit
  %mul.i.i = shl i64 %5, 1
  %spec.store.select.i.i = call i64 @llvm.umax.i64(i64 %mul.i.i, i64 %add.i.i)
  store i64 %spec.store.select.i.i, ptr %BufferCapacity.i.i, align 8
  %call.i.i = call ptr @realloc(ptr noundef %.pre.i, i64 noundef %spec.store.select.i.i) #21
  store ptr %call.i.i, ptr %S, align 8
  %cmp14.i.i = icmp eq ptr %call.i.i, null
  br i1 %cmp14.i.i, label %if.then15.i.i, label %if.then.i._ZN12OutputStream4growEm.exit_crit_edge.i

if.then.i._ZN12OutputStream4growEm.exit_crit_edge.i: ; preds = %if.then.i.i
  %.pre1.i = load i64, ptr %CurrentPosition.i.i, align 8
  %.pre2.i = add i64 %.pre1.i, 1
  br label %_ZN12OutputStreampLEc.exit

if.then15.i.i:                                    ; preds = %if.then.i.i
  call void @_ZSt9terminatev() #22
  unreachable

_ZN12OutputStreampLEc.exit:                       ; preds = %_ZNK4llvh16itanium_demangle4Node5printER12OutputStream.exit, %if.then.i._ZN12OutputStream4growEm.exit_crit_edge.i
  %inc.pre-phi.i = phi i64 [ %.pre2.i, %if.then.i._ZN12OutputStream4growEm.exit_crit_edge.i ], [ %add.i.i, %_ZNK4llvh16itanium_demangle4Node5printER12OutputStream.exit ]
  %6 = phi i64 [ %.pre1.i, %if.then.i._ZN12OutputStream4growEm.exit_crit_edge.i ], [ %4, %_ZNK4llvh16itanium_demangle4Node5printER12OutputStream.exit ]
  %7 = phi ptr [ %call.i.i, %if.then.i._ZN12OutputStream4growEm.exit_crit_edge.i ], [ %.pre.i, %_ZNK4llvh16itanium_demangle4Node5printER12OutputStream.exit ]
  store i64 %inc.pre-phi.i, ptr %CurrentPosition.i.i, align 8
  %arrayidx.i = getelementptr inbounds i8, ptr %7, i64 %6
  store i8 0, ptr %arrayidx.i, align 1
  %cmp.not = icmp eq ptr %N, null
  br i1 %cmp.not, label %if.end4, label %if.then2

if.then2:                                         ; preds = %_ZN12OutputStreampLEc.exit
  %8 = load i64, ptr %CurrentPosition.i.i, align 8
  store i64 %8, ptr %N, align 8
  br label %if.end4

if.end4:                                          ; preds = %if.then2, %_ZN12OutputStreampLEc.exit
  %9 = load ptr, ptr %S, align 8
  br label %return

return:                                           ; preds = %if.then.i, %if.end4
  %retval.0 = phi ptr [ %9, %if.end4 ], [ null, %if.then.i ]
  ret ptr %retval.0
}